target datalayout = "e-m:e-p270:32:32-p271:32:32-p272:64:64-i64:64-i128:128-f80:128-n8:16:32:64-S128"
target triple = "x86_64-pc-linux-gnu"

%struct.gpg_format = type { ptr, ptr, ptr, ptr, ptr, ptr, ptr, ptr }
%struct.strvec = type { ptr, i64, i64 }
%struct.strbuf = type { i64, i64, ptr }
%struct.child_process = type { %struct.strvec, %struct.strvec, i32, i32, i64, ptr, ptr, i32, i32, i32, ptr, i16, ptr }

@use_format = internal global ptr @gpg_format, align 8
@strbuf_slopbuf = external global [0 x i8], align 1
@__const.sign_buffer_gpg.gpg_status = private unnamed_addr constant %struct.strbuf { i64 0, i64 0, ptr @strbuf_slopbuf }, align 8
@.str.42 = private unnamed_addr constant [14 x i8] c"--status-fd=2\00", align 1
@.str.43 = private unnamed_addr constant [6 x i8] c"-bsau\00", align 1
@.str.44 = private unnamed_addr constant [22 x i8] c"[GNUPG:] SIG_CREATED \00", align 1
@.str.45 = private unnamed_addr constant [32 x i8] c"gpg failed to sign the data:\0A%s\00", align 1
@.str.46 = private unnamed_addr constant [16 x i8] c"(no gpg output)\00", align 1
@.str.47 = private unnamed_addr constant [11 x i8] c"./strbuf.h\00", align 1
@.str.48 = private unnamed_addr constant [30 x i8] c"strbuf_setlen() beyond buffer\00", align 1
@.str.92 = private unnamed_addr constant [1 x i8] zeroinitializer, align 1
@git_gettext_enabled = external global i32, align 4

; Function Attrs: inlinehint nounwind uwtable
define internal void @strbuf_setlen(ptr noundef %0, i64 noundef %1) #4 {
  %3 = alloca ptr, align 8
  %4 = alloca i64, align 8
  store ptr %0, ptr %3, align 8, !tbaa !44
  store i64 %1, ptr %4, align 8, !tbaa !21
  %5 = load i64, ptr %4, align 8, !tbaa !21
  %6 = load ptr, ptr %3, align 8, !tbaa !44
  %7 = getelementptr inbounds nuw %struct.strbuf, ptr %6, i32 0, i32 0
  %8 = load i64, ptr %7, align 8, !tbaa !90
  %9 = icmp ne i64 %8, 0
  br i1 %9, label %10, label %15

10:                                               ; preds = %2
  %11 = load ptr, ptr %3, align 8, !tbaa !44
  %12 = getelementptr inbounds nuw %struct.strbuf, ptr %11, i32 0, i32 0
  %13 = load i64, ptr %12, align 8, !tbaa !90
  %14 = sub i64 %13, 1
  br label %16

15:                                               ; preds = %2
  br label %16

16:                                               ; preds = %15, %10
  %17 = phi i64 [ %14, %10 ], [ 0, %15 ]
  %18 = icmp ugt i64 %5, %17
  br i1 %18, label %19, label %20

19:                                               ; preds = %16
  call void (ptr, i32, ptr, ...) @BUG_fl(ptr noundef @.str.47, i32 noundef 167, ptr noundef @.str.48) #9
  unreachable

20:                                               ; preds = %16
  %21 = load i64, ptr %4, align 8, !tbaa !21
  %22 = load ptr, ptr %3, align 8, !tbaa !44
  %23 = getelementptr inbounds nuw %struct.strbuf, ptr %22, i32 0, i32 1
  store i64 %21, ptr %23, align 8, !tbaa !74
  %24 = load ptr, ptr %3, align 8, !tbaa !44
  %25 = getelementptr inbounds nuw %struct.strbuf, ptr %24, i32 0, i32 2
  %26 = load ptr, ptr %25, align 8, !tbaa !73
  %27 = icmp ne ptr %26, @strbuf_slopbuf
  br i1 %27, label %28, label %34

28:                                               ; preds = %20
  %29 = load ptr, ptr %3, align 8, !tbaa !44
  %30 = getelementptr inbounds nuw %struct.strbuf, ptr %29, i32 0, i32 2
  %31 = load ptr, ptr %30, align 8, !tbaa !73
  %32 = load i64, ptr %4, align 8, !tbaa !21
  %33 = getelementptr inbounds nuw i8, ptr %31, i64 %32
  store i8 0, ptr %33, align 1, !tbaa !34
  br label %35

34:                                               ; preds = %20
  br label %35

35:                                               ; preds = %34, %28
  ret void
}

; Function Attrs: nounwind uwtable
define internal void @remove_cr_after(ptr noundef %0, i64 noundef %1) #0 {
  %3 = alloca ptr, align 8
  %4 = alloca i64, align 8
  %5 = alloca i64, align 8
  %6 = alloca i64, align 8
  store ptr %0, ptr %3, align 8, !tbaa !44
  store i64 %1, ptr %4, align 8, !tbaa !21
  call void @llvm.lifetime.start.p0(i64 8, ptr %5) #8
  call void @llvm.lifetime.start.p0(i64 8, ptr %6) #8
  %7 = load i64, ptr %4, align 8, !tbaa !21
  store i64 %7, ptr %6, align 8, !tbaa !21
  store i64 %7, ptr %5, align 8, !tbaa !21
  br label %8

8:                                                ; preds = %43, %2
  %9 = load i64, ptr %5, align 8, !tbaa !21
  %10 = load ptr, ptr %3, align 8, !tbaa !44
  %11 = getelementptr inbounds nuw %struct.strbuf, ptr %10, i32 0, i32 1
  %12 = load i64, ptr %11, align 8, !tbaa !74
  %13 = icmp ult i64 %9, %12
  br i1 %13, label %14, label %46

14:                                               ; preds = %8
  %15 = load ptr, ptr %3, align 8, !tbaa !44
  %16 = getelementptr inbounds nuw %struct.strbuf, ptr %15, i32 0, i32 2
  %17 = load ptr, ptr %16, align 8, !tbaa !73
  %18 = load i64, ptr %5, align 8, !tbaa !21
  %19 = getelementptr inbounds nuw i8, ptr %17, i64 %18
  %20 = load i8, ptr %19, align 1, !tbaa !34
  %21 = sext i8 %20 to i32
  %22 = icmp ne i32 %21, 13
  br i1 %22, label %23, label %42

23:                                               ; preds = %14
  %24 = load i64, ptr %5, align 8, !tbaa !21
  %25 = load i64, ptr %6, align 8, !tbaa !21
  %26 = icmp ne i64 %24, %25
  br i1 %26, label %27, label %39

27:                                               ; preds = %23
  %28 = load ptr, ptr %3, align 8, !tbaa !44
  %29 = getelementptr inbounds nuw %struct.strbuf, ptr %28, i32 0, i32 2
  %30 = load ptr, ptr %29, align 8, !tbaa !73
  %31 = load i64, ptr %5, align 8, !tbaa !21
  %32 = getelementptr inbounds nuw i8, ptr %30, i64 %31
  %33 = load i8, ptr %32, align 1, !tbaa !34
  %34 = load ptr, ptr %3, align 8, !tbaa !44
  %35 = getelementptr inbounds nuw %struct.strbuf, ptr %34, i32 0, i32 2
  %36 = load ptr, ptr %35, align 8, !tbaa !73
  %37 = load i64, ptr %6, align 8, !tbaa !21
  %38 = getelementptr inbounds nuw i8, ptr %36, i64 %37
  store i8 %33, ptr %38, align 1, !tbaa !34
  br label %39

39:                                               ; preds = %27, %23
  %40 = load i64, ptr %6, align 8, !tbaa !21
  %41 = add i64 %40, 1
  store i64 %41, ptr %6, align 8, !tbaa !21
  br label %42

42:                                               ; preds = %39, %14
  br label %43

43:                                               ; preds = %42
  %44 = load i64, ptr %5, align 8, !tbaa !21
  %45 = add i64 %44, 1
  store i64 %45, ptr %5, align 8, !tbaa !21
  br label %8, !llvm.loop !89

46:                                               ; preds = %8
  %47 = load ptr, ptr %3, align 8, !tbaa !44
  %48 = load i64, ptr %6, align 8, !tbaa !21
  call void @strbuf_setlen(ptr noundef %47, i64 noundef %48)
  call void @llvm.lifetime.end.p0(i64 8, ptr %6) #8
  call void @llvm.lifetime.end.p0(i64 8, ptr %5) #8
  ret void
}

; Function Attrs: inlinehint nounwind uwtable
define internal i32 @const_error() #4 {
  ret i32 -1
}

; Function Attrs: inlinehint nounwind uwtable
define internal ptr @_(ptr noundef %0) #4 {
  %2 = alloca ptr, align 8
  %3 = alloca ptr, align 8
  store ptr %0, ptr %3, align 8, !tbaa !20
  %4 = load ptr, ptr %3, align 8, !tbaa !20
  %5 = load i8, ptr %4, align 1, !tbaa !34
  %6 = icmp ne i8 %5, 0
  br i1 %6, label %8, label %7

7:                                                ; preds = %1
  store ptr @.str.92, ptr %2, align 8
  br label %16

8:                                                ; preds = %1
  %9 = load i32, ptr @git_gettext_enabled, align 4, !tbaa !29
  %10 = icmp ne i32 %9, 0
  br i1 %10, label %13, label %11

11:                                               ; preds = %8
  %12 = load ptr, ptr %3, align 8, !tbaa !20
  store ptr %12, ptr %2, align 8
  br label %16

13:                                               ; preds = %8
  %14 = load ptr, ptr %3, align 8, !tbaa !20
  %15 = call ptr @dcgettext(ptr noundef null, ptr noundef %14, i32 noundef 5) #8
  store ptr %15, ptr %2, align 8
  br label %16

16:                                               ; preds = %13, %11, %7
  %17 = load ptr, ptr %2, align 8
  ret ptr %17
}

; Function Attrs: nounwind uwtable
define internal i32 @sign_buffer_gpg(ptr noundef %0, ptr noundef %1, ptr noundef %2) #0 {
  %4 = alloca i32, align 4
  %5 = alloca ptr, align 8
  %6 = alloca ptr, align 8
  %7 = alloca ptr, align 8
  %8 = alloca %struct.child_process, align 8
  %9 = alloca i32, align 4
  %10 = alloca i64, align 8
  %11 = alloca ptr, align 8
  %12 = alloca %struct.strbuf, align 8
  %13 = alloca i32, align 4
  store ptr %0, ptr %5, align 8, !tbaa !44
  store ptr %1, ptr %6, align 8, !tbaa !44
  store ptr %2, ptr %7, align 8, !tbaa !20
  call void @llvm.lifetime.start.p0(i64 120, ptr %8) #8
  call void @llvm.memcpy.p0.p0.i64(ptr align 8 %8, ptr align 8 @__const.sign_buffer_gpg.gpg, i64 120, i1 false)
  call void @llvm.lifetime.start.p0(i64 4, ptr %9) #8
  call void @llvm.lifetime.start.p0(i64 8, ptr %10) #8
  call void @llvm.lifetime.start.p0(i64 8, ptr %11) #8
  call void @llvm.lifetime.start.p0(i64 24, ptr %12) #8
  call void @llvm.memcpy.p0.p0.i64(ptr align 8 %12, ptr align 8 @__const.sign_buffer_gpg.gpg_status, i64 24, i1 false)
  %14 = getelementptr inbounds nuw %struct.child_process, ptr %8, i32 0, i32 0
  %15 = load ptr, ptr @use_format, align 8, !tbaa !24
  %16 = getelementptr inbounds nuw %struct.gpg_format, ptr %15, i32 0, i32 1
  %17 = load ptr, ptr %16, align 8, !tbaa !71
  %18 = load ptr, ptr %7, align 8, !tbaa !20
  call void (ptr, ...) @strvec_pushl(ptr noundef %14, ptr noundef %17, ptr noundef @.str.42, ptr noundef @.str.43, ptr noundef %18, ptr noundef null)
  %19 = load ptr, ptr %6, align 8, !tbaa !44
  %20 = getelementptr inbounds nuw %struct.strbuf, ptr %19, i32 0, i32 1
  %21 = load i64, ptr %20, align 8, !tbaa !74
  store i64 %21, ptr %10, align 8, !tbaa !21
  %22 = call i32 @sigchain_push(i32 noundef 13, ptr noundef inttoptr (i64 1 to ptr))
  %23 = load ptr, ptr %5, align 8, !tbaa !44
  %24 = getelementptr inbounds nuw %struct.strbuf, ptr %23, i32 0, i32 2
  %25 = load ptr, ptr %24, align 8, !tbaa !73
  %26 = load ptr, ptr %5, align 8, !tbaa !44
  %27 = getelementptr inbounds nuw %struct.strbuf, ptr %26, i32 0, i32 1
  %28 = load i64, ptr %27, align 8, !tbaa !74
  %29 = load ptr, ptr %6, align 8, !tbaa !44
  %30 = call i32 @pipe_command(ptr noundef %8, ptr noundef %25, i64 noundef %28, ptr noundef %29, i64 noundef 1024, ptr noundef %12, i64 noundef 0)
  store i32 %30, ptr %9, align 4, !tbaa !29
  %31 = call i32 @sigchain_pop(i32 noundef 13)
  %32 = getelementptr inbounds nuw %struct.strbuf, ptr %12, i32 0, i32 2
  %33 = load ptr, ptr %32, align 8, !tbaa !73
  store ptr %33, ptr %11, align 8, !tbaa !20
  br label %34

34:                                               ; preds = %56, %3
  %35 = load ptr, ptr %11, align 8, !tbaa !20
  %36 = icmp ne ptr %35, null
  br i1 %36, label %37, label %41

37:                                               ; preds = %34
  %38 = load ptr, ptr %11, align 8, !tbaa !20
  %39 = call ptr @strstr(ptr noundef %38, ptr noundef @.str.44) #10
  store ptr %39, ptr %11, align 8, !tbaa !20
  %40 = icmp ne ptr %39, null
  br label %41

41:                                               ; preds = %37, %34
  %42 = phi i1 [ false, %34 ], [ %40, %37 ]
  br i1 %42, label %43, label %59

43:                                               ; preds = %41
  %44 = load ptr, ptr %11, align 8, !tbaa !20
  %45 = getelementptr inbounds nuw %struct.strbuf, ptr %12, i32 0, i32 2
  %46 = load ptr, ptr %45, align 8, !tbaa !73
  %47 = icmp eq ptr %44, %46
  br i1 %47, label %54, label %48

48:                                               ; preds = %43
  %49 = load ptr, ptr %11, align 8, !tbaa !20
  %50 = getelementptr inbounds i8, ptr %49, i64 -1
  %51 = load i8, ptr %50, align 1, !tbaa !34
  %52 = sext i8 %51 to i32
  %53 = icmp eq i32 %52, 10
  br i1 %53, label %54, label %55

54:                                               ; preds = %48, %43
  br label %59

55:                                               ; preds = %48
  br label %56

56:                                               ; preds = %55
  %57 = load ptr, ptr %11, align 8, !tbaa !20
  %58 = getelementptr inbounds nuw i8, ptr %57, i32 1
  store ptr %58, ptr %11, align 8, !tbaa !20
  br label %34, !llvm.loop !75

59:                                               ; preds = %54, %41
  %60 = load ptr, ptr %11, align 8, !tbaa !20
  %61 = icmp ne ptr %60, null
  %62 = xor i1 %61, true
  %63 = zext i1 %62 to i32
  %64 = load i32, ptr %9, align 4, !tbaa !29
  %65 = or i32 %64, %63
  store i32 %65, ptr %9, align 4, !tbaa !29
  %66 = load i32, ptr %9, align 4, !tbaa !29
  %67 = icmp ne i32 %66, 0
  br i1 %67, label %68, label %81

68:                                               ; preds = %59
  %69 = call ptr @_(ptr noundef @.str.45)
  %70 = getelementptr inbounds nuw %struct.strbuf, ptr %12, i32 0, i32 1
  %71 = load i64, ptr %70, align 8, !tbaa !74
  %72 = icmp ne i64 %71, 0
  br i1 %72, label %73, label %76

73:                                               ; preds = %68
  %74 = getelementptr inbounds nuw %struct.strbuf, ptr %12, i32 0, i32 2
  %75 = load ptr, ptr %74, align 8, !tbaa !73
  br label %77

76:                                               ; preds = %68
  br label %77

77:                                               ; preds = %76, %73
  %78 = phi ptr [ %75, %73 ], [ @.str.46, %76 ]
  %79 = call i32 (ptr, ...) @error(ptr noundef %69, ptr noundef %78)
  %80 = call i32 @const_error()
  call void @strbuf_release(ptr noundef %12)
  store i32 -1, ptr %4, align 4
  store i32 1, ptr %13, align 4
  br label %84

81:                                               ; preds = %59
  call void @strbuf_release(ptr noundef %12)
  %82 = load ptr, ptr %6, align 8, !tbaa !44
  %83 = load i64, ptr %10, align 8, !tbaa !21
  call void @remove_cr_after(ptr noundef %82, i64 noundef %83)
  store i32 0, ptr %4, align 4
  store i32 1, ptr %13, align 4
  br label %84

84:                                               ; preds = %81, %77
  call void @llvm.lifetime.end.p0(i64 24, ptr %12) #8
  call void @llvm.lifetime.end.p0(i64 8, ptr %11) #8
  call void @llvm.lifetime.end.p0(i64 8, ptr %10) #8
  call void @llvm.lifetime.end.p0(i64 4, ptr %9) #8
  call void @llvm.lifetime.end.p0(i64 120, ptr %8) #8
  %85 = load i32, ptr %4, align 4
  ret i32 %85
}