; Function Attrs: nounwind uwtable
define internal range(i32 -1, 1) i32 @sign_buffer_gpg(ptr noundef readonly captures(none) %0, ptr noundef %1, ptr noundef %2) #2 {
  %4 = alloca %struct.child_process, align 8
  %5 = alloca %struct.strbuf, align 8
  call void @llvm.lifetime.start.p0(i64 120, ptr nonnull %4) #15
  call void @llvm.memcpy.p0.p0.i64(ptr noundef nonnull align 8 dereferenceable(120) %4, ptr noundef nonnull align 8 dereferenceable(120) @__const.get_ssh_key_fingerprint.ssh_keygen, i64 120, i1 false)
  call void @llvm.lifetime.start.p0(i64 24, ptr nonnull %5) #15
  call void @llvm.memcpy.p0.p0.i64(ptr noundef nonnull align 8 dereferenceable(24) %5, ptr noundef nonnull align 8 dereferenceable(24) @__const.get_ssh_key_fingerprint.fingerprint_stdout, i64 24, i1 false)
  %6 = load ptr, ptr @use_format, align 8, !tbaa !38
  %7 = getelementptr inbounds nuw i8, ptr %6, i64 8
  %8 = load ptr, ptr %7, align 8, !tbaa !58
  call void (ptr, ...) @strvec_pushl(ptr noundef nonnull %4, ptr noundef %8, ptr noundef nonnull @.str.42, ptr noundef nonnull @.str.43, ptr noundef %2, ptr noundef null) #15
  %9 = getelementptr inbounds nuw i8, ptr %1, i64 8
  %10 = load i64, ptr %9, align 8, !tbaa !70
  %11 = call i32 @sigchain_push(i32 noundef 13, ptr noundef nonnull inttoptr (i64 1 to ptr)) #15
  %12 = getelementptr inbounds nuw i8, ptr %0, i64 16
  %13 = load ptr, ptr %12, align 8, !tbaa !60
  %14 = getelementptr inbounds nuw i8, ptr %0, i64 8
  %15 = load i64, ptr %14, align 8, !tbaa !70
  %16 = call i32 @pipe_command(ptr noundef nonnull %4, ptr noundef %13, i64 noundef %15, ptr noundef %1, i64 noundef 1024, ptr noundef nonnull %5, i64 noundef 0) #15
  %17 = call i32 @sigchain_pop(i32 noundef 13) #15
  %18 = getelementptr inbounds nuw i8, ptr %5, i64 16
  %19 = load ptr, ptr %18, align 8, !tbaa !60
  %.not22 = icmp eq ptr %19, null
  br i1 %.not22, label %.critedge, label %.lr.ph.preheader

.lr.ph.preheader:                                 ; preds = %3
  %20 = call ptr @strstr(ptr noundef nonnull dereferenceable(1) %19, ptr noundef nonnull dereferenceable(1) @.str.44) #18
  %.not1830 = icmp eq ptr %20, null
  br i1 %.not1830, label %.critedge, label %.lr.ph31

.lr.ph:                                           ; preds = %25
  %21 = getelementptr inbounds nuw i8, ptr %23, i64 1
  %22 = call ptr @strstr(ptr noundef nonnull dereferenceable(1) %21, ptr noundef nonnull dereferenceable(1) @.str.44) #18
  %.not18 = icmp eq ptr %22, null
  br i1 %.not18, label %.critedge, label %.lr.ph31

.lr.ph31:                                         ; preds = %.lr.ph.preheader, %.lr.ph
  %23 = phi ptr [ %22, %.lr.ph ], [ %20, %.lr.ph.preheader ]
  %24 = icmp eq ptr %23, %19
  br i1 %24, label %.critedge, label %25

25:                                               ; preds = %.lr.ph31
  %26 = getelementptr inbounds i8, ptr %23, i64 -1
  %27 = load i8, ptr %26, align 1, !tbaa !33
  %28 = icmp eq i8 %27, 10
  br i1 %28, label %.critedge, label %.lr.ph

.critedge:                                        ; preds = %.lr.ph31, %25, %.lr.ph, %.lr.ph.preheader, %3
  %.1 = phi i32 [ 1, %3 ], [ 1, %.lr.ph.preheader ], [ 1, %.lr.ph ], [ 0, %25 ], [ 0, %.lr.ph31 ]
  %29 = or i32 %.1, %16
  %.not20 = icmp eq i32 %29, 0
  br i1 %.not20, label %39, label %30

30:                                               ; preds = %.critedge
  %31 = load i32, ptr @git_gettext_enabled, align 4, !tbaa !32
  %.not4.i = icmp eq i32 %31, 0
  br i1 %.not4.i, label %_.exit, label %32

32:                                               ; preds = %30
  %33 = call ptr @dcgettext(ptr noundef null, ptr noundef nonnull @.str.45, i32 noundef 5) #15
  %.pre = load ptr, ptr %18, align 8
  br label %_.exit

_.exit:                                           ; preds = %30, %32
  %34 = phi ptr [ %.pre, %32 ], [ %19, %30 ]
  %.0.i = phi ptr [ %33, %32 ], [ @.str.45, %30 ]
  %35 = getelementptr inbounds nuw i8, ptr %5, i64 8
  %36 = load i64, ptr %35, align 8, !tbaa !70
  %.not21 = icmp eq i64 %36, 0
  %37 = select i1 %.not21, ptr @.str.46, ptr %34
  %38 = call i32 (ptr, ...) @error(ptr noundef %.0.i, ptr noundef %37) #15
  call void @strbuf_release(ptr noundef nonnull %5) #15
  br label %remove_cr_after.exit

39:                                               ; preds = %.critedge
  call void @strbuf_release(ptr noundef nonnull %5) #15
  %40 = load i64, ptr %9, align 8, !tbaa !70
  %41 = icmp ult i64 %10, %40
  br i1 %41, label %.lr.ph.i, label %._crit_edge.i

.lr.ph.i:                                         ; preds = %39
  %42 = getelementptr inbounds nuw i8, ptr %1, i64 16
  br label %43

43:                                               ; preds = %53, %.lr.ph.i
  %.pre18.i = phi i64 [ %40, %.lr.ph.i ], [ %.pre19.i, %53 ]
  %44 = phi i64 [ %40, %.lr.ph.i ], [ %54, %53 ]
  %.017.i = phi i64 [ %10, %.lr.ph.i ], [ %.1.i, %53 ]
  %.01416.i = phi i64 [ %10, %.lr.ph.i ], [ %55, %53 ]
  %45 = load ptr, ptr %42, align 8, !tbaa !60
  %46 = getelementptr inbounds nuw i8, ptr %45, i64 %.01416.i
  %47 = load i8, ptr %46, align 1, !tbaa !33
  %.not.i = icmp eq i8 %47, 13
  br i1 %.not.i, label %53, label %48

48:                                               ; preds = %43
  %.not15.i = icmp eq i64 %.01416.i, %.017.i
  br i1 %.not15.i, label %51, label %49

49:                                               ; preds = %48
  %50 = getelementptr inbounds nuw i8, ptr %45, i64 %.017.i
  store i8 %47, ptr %50, align 1, !tbaa !33
  %.pre.pre.i = load i64, ptr %9, align 8, !tbaa !70
  br label %51

51:                                               ; preds = %49, %48
  %.pre.i = phi i64 [ %.pre.pre.i, %49 ], [ %.pre18.i, %48 ]
  %52 = add i64 %.017.i, 1
  br label %53

53:                                               ; preds = %51, %43
  %.pre19.i = phi i64 [ %.pre.i, %51 ], [ %.pre18.i, %43 ]
  %54 = phi i64 [ %.pre.i, %51 ], [ %44, %43 ]
  %.1.i = phi i64 [ %52, %51 ], [ %.017.i, %43 ]
  %55 = add nuw i64 %.01416.i, 1
  %56 = icmp ult i64 %55, %54
  br i1 %56, label %43, label %._crit_edge.i, !llvm.loop !71

._crit_edge.i:                                    ; preds = %53, %39
  %.0.lcssa.i = phi i64 [ %10, %39 ], [ %.1.i, %53 ]
  %57 = load i64, ptr %1, align 8, !tbaa !72
  %spec.select.i.i = call i64 @llvm.usub.sat.i64(i64 %57, i64 1)
  %58 = icmp ugt i64 %.0.lcssa.i, %spec.select.i.i
  br i1 %58, label %59, label %60

59:                                               ; preds = %._crit_edge.i
  call void (ptr, i32, ptr, ...) @BUG_fl(ptr noundef nonnull @.str.47, i32 noundef 167, ptr noundef nonnull @.str.48) #16
  unreachable

60:                                               ; preds = %._crit_edge.i
  store i64 %.0.lcssa.i, ptr %9, align 8, !tbaa !70
  %61 = getelementptr inbounds nuw i8, ptr %1, i64 16
  %62 = load ptr, ptr %61, align 8, !tbaa !60
  %.not9.i.i = icmp eq ptr %62, @strbuf_slopbuf
  br i1 %.not9.i.i, label %remove_cr_after.exit, label %63

63:                                               ; preds = %60
  %64 = getelementptr inbounds nuw i8, ptr %62, i64 %.0.lcssa.i
  store i8 0, ptr %64, align 1, !tbaa !33
  br label %remove_cr_after.exit

remove_cr_after.exit:                             ; preds = %63, %60, %_.exit
  %.015 = phi i32 [ -1, %_.exit ], [ 0, %60 ], [ 0, %63 ]
  call void @llvm.lifetime.end.p0(i64 24, ptr nonnull %5) #15
  call void @llvm.lifetime.end.p0(i64 120, ptr nonnull %4) #15
  ret i32 %.015
}